(dp1
VPage.objects.filter(state=LIVE).select_related('path').values_list('path', 'meta_title')
p2
I18609
sVdate_value = DATE_RE.findall(''.join(value.strip() for value in item.select(date_xpath).extract()))
p3
I16789
sVvar quotedUser='(\u005c"[^\u005c"]*\u005c")';
p4
I9634
sVst2 = os.stat('/home/omab/server.py')
p5
I16599
sVtexts = {}
p6
I3830
sVs.tokens
p7
I19753
sVstr(val.encode('ascii'))
p8
I10414
sVlibxml2.parseURI.__doc__
p9
I1788
sVfunc(1, 2, 1, r=True)
p10
I18186
sVa.text()
p11
I862
sVa.__class__.__index__(1)
p12
I4140
sVpurple.connect_to_signal('ReceivedImMsg', my_func)
p13
I1438
sVmeta.tables.keys()
p14
I15158
sVzip([], [1, 2], ['a', 'b'])
p15
I21431
sVurlparse.urlparse('http://digg.com/#pepe')
p16
I8825
sVHTMLParser.locatestarttagend?
p17
I9761
sVsys.path.append('/usr/lib/pyshared/python2.5')
p18
I6882
sVloop.get_nodes_by_type((template.TOKEN_BLOCK,))
p19
I10192
sVos.remove?
p20
I12280
sVpow
p21
I12758
sVItem.objects.filter()
p22
I10976
sVf.has_next()
p23
I1270
sVSiteCategoryProducts.objects.distinct('category__id').filter(category__slug__in=categories).values('product', 'category__slug').order_by('-priority')
p24
I10552
sVh.__class__
p25
I1155
sVplugins.PLUGINS
p26
I14214
sVf = fd.fragments['text']
p27
I767
sVany((i in set([ up.split('.')[-1] for up in u.get_all_permissions() ]) for i in ['cms_producer2']))
p28
I5983
sVi = Item.objects.get(pk=1)
p29
I17861
sVr.user.is_labs()
p30
I18079
sVr.GET.__class__
p31
I10635
sVa+=b
p32
I385
sVnew_values
p33
I4546
sVprint a.has_key.__doc__
p34
I4525
sVmod.__package__
p35
I19478
sVlen(str(uuid.uuid4()))
p36
I18620
sVbool(None)
p37
I4423
sVu = SystemUser.objects.get(id=512)
p38
I12755
sV_^&!&(%{_%*[($])}%[{@{{^_[$}@&&_)^()({%![#][(}+&^(]&}!*@#{)]{i]%_]%^(&]^{+_([)$%
p39
I13920
sVupdate cms_fragment_template set content_names = "question/largetext" where id = 118;
p40
I6711
sVf = open('/tmp/file.jpg', 'w')
p41
I12551
sVminifb.call('pages_isFan', settings.FACEBOOK_API_KEY, settings.FACEBOOK_SECRET_KEY, session_key='3123213123')
p42
I10589
sVp.pp()
p43
I4602
sVa.content
p44
I5347
sVs = LazySearch(search_rooms, post_processor=shuffle, count=20)
p45
I12781
sVUserSocialAuth._meta.get_all_field_names()
p46
I19258
sVvalues = { 'codename': 'pepe', 'content_type_id': ct.id, 'name': 'add' }
p47
I7921
sV(%[@%!}%*$}(*@)}){+@(%@*$&]*^*}*]&$[}*]%]+*}^!}*$^^_()#$^]++@__){&&+((#%+(&+){)$
p48
I12882
sVtime.mktime(d2.totimetuple())
p49
I4067
sVstr(opr)
p50
I414
sVos.listdir('/home/omab/.sheep')
p51
I6865
sV_][[#@%!_})!]@$[}&&#)#_%[!%]*&)###}*#!^{+@[!%^)[%{}__]+%%{&)}!$!}}*&{{#++{_@{(})
p52
I13872
sVu.social_auth.is_twitter
p53
I20221
sVItem._translation_model._meta.pk.db_
p54
I11520
sVcsv.reader?
p55
I15095
sVidx = make_indexer([Video, Post, Image])
p56
I243
sVCmsPage(pepe=32)
p57
I5991
sVr = re.match("xxx/yyy", a)
p58
I18232
sVd.modify_bg(1,'')
p59
I8080
sVsimplejson.loads(l)
p60
I1062
sVroom.id
p61
I11759
sVa[:b:]
p62
I12443
sVfor k in [ 'Exif.Image.ImageDescription', 'Exif.Image.Make', 'Exif.Photo.MakerNote', 'Exif.Photo.UserComment', 'Exif.Photo.InteroperabilityTag', 'Exif.Iop.InteroperabilityIndex', 'Exif.Iop.InteroperabilityVersion']:
p63
I5548
sVdatetime.datetime.strftime()
p64
I5677
sVsr.result.items[0].images
p65
I11556
sVimport copy
p66
I554
sVc = forms.CharField()
p67
I14459
sVx.search('bed')
p68
I19366
sVDateTimeField().value_to_string()
p69
I7763
sVc = "conic"
p70
I15562
sVd.xpathEval("//a")[0].prop("href").find("shopping")
p71
I1798
sVa.add(1).add(2)
p72
I2304
sVu = User.objects.order_by('-id')[2]
p73
I20320
sVx = (100 / (1223.0 / 300.0)) * (100 / 300)
p74
I10758
sVp.shared_pages()
p75
I592
sVdef dec(fn, attr=False):
p76
I11433
sVadmin.sites.site._registry[User]
p77
I7124
sVprint f.as_p()
p78
I2376
sVcgi.parse_qsl(base64.b64decode("c3VwcGxpZXJfdGV4dD1Ub3ArcXVhbGl0eStiZWRkaW5nK2F0K3VuYmVsaWV2YWJsZStwcmljZXMuJndlYnNpdGVfbmFtZT1EdXZldCslMjYrUGlsbG93K1dhcmVob3VzZSZkZXNjcmlwdGlvbj1DaGVhcGVzdCtkdXZldHMlMkMrcGlsbG93cythbmQrdG93ZWxzKy0rZXZlbitpbitzYWxlK3RpbWUmZXhwaXJlcz0zMSUyRjAxJTJGMjAxMCZ0aXRsZT1VcCt0bys1MCUyNStvZmY="))
p79
I11733
sVtext
p80
I5216
sV%timeit hasattr(o, 'attr')
p81
I16324
sVmax([ x.version_id for x in p.versions ])
p82
I15330
sVt.timetuple()
p83
I18385
sVdatetime.datetime(0)
p84
I6049
sV#(*+##$%$+}$]%&]&(+!+})$]![]%_]]+}@}^*^[!])@(!_[]+$*}@][!&)%@^_!#%^[@&$(^_(&})%}
p85
I13154
sVappend_titles(Video.objects.all(), "maraca")
p86
I147
sVPAGES['shopping.s']().values()
p87
I17782
sV'/'.join(chain(*x))
p88
I15125
sVfd = urllib.urlopen('https://extranet.us.mydeco.com/tipocms/export/36/')
p89
I12318
sV%timeit getattr(o, 'attr', None)
p90
I16323
sVupdate cms_fragment_template set content_names = "" where id = 42;
p91
I6637
sVi.save_form_data()
p92
I4907
sVu = SystemUser.objects.get(pk=512)
p93
I12754
sVr.terms()
p94
I7691
sVw.is_valid()
p95
I4127
sVp.metas.title.text
p96
I4305
s.