(dp1
Vg.obnob_users.filter(condition)
p2
I20493
sVa/0
p3
I2517
sVfrom os.path import dirname, basename
p4
I19471
sVurllib.unquote
p5
I8500
sVp functools.wraps.__doc__
p6
I2721
sVfrom cms.pages.design.category import *
p7
I18091
sVTrue/10.0
p8
I4313
sVfrom categorization.models import CatInfo
p9
I20535
sV]&*)](}{%$]}}%%]!_*{(_[]([^[@!}[[$^!}#)**%#$}#{#&%!%![_&(]^_#!!{+@+*@$^#+#@[}%*%
p10
I13336
sV_[^}{$%@$))_$]+[[##%$]&+]^]!)+^![(%+{&$%&)_$[#%_%_{*{)({{&+^@_(&!$&!![[!{%_**%%]
p11
I13414
sVp.cmspagemetacontent_set.all()
p12
I551
sVb.thumb_large_url
p13
I9446
sVi.switch_language?
p14
I17862
sVdatetime.datetime.utcnow()
p15
I9559
sVbase64.encodestring('hola mundo')
p16
I16605
sVdef xxx(var, rec=False, *args, **kwargs):\u000a    print var, rec, args, kwargs
p17
I18159
sV@*)*%*_&!##*![_$_^#+!}{!&]+%*@^#^[+({!#*%@+^*@!+})^$+[@@_](]$}($^}^$&*}}$%@#!%[*
p18
I13356
sVroom.type.type
p19
I11762
sVchild
p20
I15842
sVsimplejson.dumo({ 'hola': 'mundo' })
p21
I4951
sVPerson.objects.all().lang('es')
p22
I5842
sVlist(Product.objects.filter(pk__in=[x[0]]))
p23
I18551
sVi.translations.all()
p24
I17864
sVr.findall('super bedding eh?')
p25
I19075
sV(@_{^%*]##*^!!)(}#{@*&#_}[[$)}[#&[)@}!_*}]#@+
p26
I13232
sV_{{$%_+*^{+!*!$)}*)_&%@[$*!&*#][!!&#{]$}}]^_$*!*&]&(@%_$*@+!{}^^+()+_$(!]*@)&#[#
p27
I13924
sVTemplate("{% if (x + y) > 10 %}hola{% endif %}").render(Context({'x': 1, 'y': 2}))
p28
I18682
sVtexto = "phtsilbjgbilcvpbegybvpbvgqycvysesptbislhtsybosjcivlthacxsvcsxsvcihbvltcehipcxstsbyycnhbspsxlsipcvbxbtesibilbebilbsysvjcexybmsvybabvhigfbtvsybvjspsxsvcnhbxbivspcabvlhpgspcxstsuhblcpcxhpgbtsjcbzgvlgtbixsoavhxtbesstecigsjhsipcvbpgcgigjgcsyqtsimhbqchigfbtvsyysesptbislhtsybosvcycpgvxcigspbhicvjhsilcvslcecvpbkgptcqbicxbtcvhgijtbgwybgesqgisjgciavhxcpbtjtbslgfcjcebiostciscwtstegysqtcvvbmhilstciycvslcecvpbkgptcqbicxstsksjbtbvltbyysvuhbpswsiwtgyycajcyctsyhigfbtvcbivhgilbtgctvbnhbtcinctesipcslcecvpbcltcveslbtgsybvkbygcjstwcicczgqbicesvlstpbkgbttcvgygjgcsyhegigcalcpcycpbesvyhbqcsyqhisvpbbvlsvbvltbyysvbzxyclstciapbvxgpgbtcisybvxsjgcegybvpbegyycibvpblcibyspsvpbeslbtgsyskctsjciesvbybebilcvysesptbislhtsybosbijciltcbyqtsimhbqcehjkcesvpgfbtlgpcpbjgpgcmhilstpgegihlsvjsilgpspbvpbeslbtgsyjsipbilbaxcibtysvbictwglspbbvsvbvltbyysvuhbaskswgskbjkcjcebiostcisbzgvlgtycvxysiblsvuhbehapbsxcuhglcvbnhbtcibintgsipc"
p29
I5214
sVcomments = ThreadedComment.objects.filter(content_type=ct, object_id__in=posts)
p30
I21328
sVaction, data = form_data(login_content, 'login_form')
p31
I20753
sVp.get('files', 'lastid')
p32
I16550
sVf = render_to('base.html')(lambda r: {'x': 1})
p33
I18334
sVthis.__str__
p34
I8
sVint('')
p35
I21342
sVclas A(object):
p36
I1704
sVfrom django.contrib.contentype.models import ContentType
p37
I11781
sVa.update([("2", "10"),])
p38
I1989
sVf.obj.content_image.all()
p39
I1287
sVfrom toolbox import twistedtools
p40
I2428
sVfr = f[3].name
p41
I1938
sVx.__hash__()
p42
I11569
sV@[(&+_{@#^&{$$[#]&@!$#$%$%(((_)!)]]*}(@*^$)!!+%_!!^__@@}[*^)%@**@!@}&!{&%+!#!(^@
p43
I13590
sVundumper.undump()
p44
I12343
sVdata['section1']['nousednames']['grouping'].form
p45
I4843
sVlocale.setlocale('ek')
p46
I5745
sVItem.objects.set_language('es').set_language('en')[0].title
p47
I11119
sVt = template.Template("""{% spaceless %}<strong>
p48
I11922
sVm.chain
p49
I8042
sVany(x == 10 for x in range(20))
p50
I17351
sVItem.objects.set_language('es').get()
p51
I11078
sVsearch_links.alter_content("/search/", "cms=true", contents)
p52
I1529
sV[ x for x in range(10) if x not in locals()['_[1]']]
p53
I7100
sV##(]{^^%{)*)!$#_*@$({[!))!@^*&@&(]+([^(*!+#@[^^^+!$]!}@+&{_*&{{!)}(!@]%_(&+[__%)
p54
I13307
sVa == b == 11
p55
I544
sVa.__getitem__(0)
p56
I903
sVf.missing_contents
p57
I4176
sVb = (5, 8)
p58
I8816
sVu.is_active = True
p59
I20335
sVtpl = CmsPageTemplate.objects.get(template_path="cms/page/quick_shop_top_ten.html")
p60
I8834
sVp.say_hi("matias")
p61
I4245
sVvalues = dict((v['id'], v['text']) for v in list(values))
p62
I8848
sVdef xxx(var, rec=False, *args, **kwargs):\u000a    print var, recursive, args, kwargs
p63
I18158
sVf = nodes[3]
p64
I10257
sVs.stampimage
p65
I3298
sVfrom question.models import Question, Topic, TopicCategory, QuestionFollower, Answer
p66
I9314
sVItem._default_manager.select_related('item_translation').values()
p67
I10989
sVr.rating
p68
I7663
sVp urlparse.urlparse("http://a.com/b").schema
p69
I4296
sV{ Pepe: "hola", Martin: "mundo" }
p70
I4819
sVt = Template('{% with val as pepe %}{{ pepe }}{% endwith %}')
p71
I11335
sVy.save()
p72
I19838
sVRenderedData(page=p, name=n, value=a.encode('utf-8').encode('utf-8')).save()
p73
I10445
sVos.__all__
p74
I2479
sVfix_cms_links(s)
p75
I15021
sVprint x.encode('utf-8')
p76
I21304
sVa.index(20)
p77
I1444
sVx.cleaned_data
p78
I20642
sVc.get_result
p79
I5174
sVTrue = 2
p80
I19523
sVclass Pepe(property):
p81
I4464
sVjson.tools
p82
I15675
sVforms.CharField.__bases__[0] == forms.Field
p83
I14468
sVimg2 = img.rotate(30)
p84
I12288
sVA.__dict__
p85
I16339
sVapi.mentions?
p86
I16474
sVct = ClassificationTokenizer({ 'article': 'html' }, phrases=['sofas beds'])
p87
I6380
sVim = Image.open("/tmp/a.jpg")
p88
I1382
s.