(dp1
Vselect uri from photos limit 2;
p2
I7519
sVrange(10)[max(3 - 2, 0): min(3 + 2, len(range(10)))]
p3
I12820
sV\u005cn\u005cnThe humble sofas beds is probably one of the most popular forms of space saving bed around. It provides an easy way of making a spare bed available at short notice.\u005cn\u005cnIt\u005c's actually surprisingly difficult to define the term sofas beds. This is partly because of the difficulty in defining the word "sofa" itself. The definition of "sofas beds" is more complex. You can buy sofas bedss in all sizes, including single seat versions. These should, strictly speaking be called "chair beds". However they are often simply called "sofas bedss". And what about the Western futon? The spread of interpretations underlines how important it is to know what you are purchasing before you buy, be it online or in a store. The simplest thing is probably to define a sofas beds as a convertible multi-functional piece of furniture that can be used as a seat during the day and reconfigured as a bed at night.\u005cn\u005cnSofa bed designs vary considerably. In some cases, the mattress simply slides out or the back folds down. Other sofas bedss unfold themselves in a masterpiece of engineering which requires a degree in quantum physics to operate. The ease of assembly is a point to consider if the sofas beds is likely to be set up late at night when people are tired and emotional. Some modern sofas bedss on the market have enough internal space that allow them to be made up with basic bedding even when they are closed and in use as seats, thereby saving a lot of time. However you will still need to find somewhere to store the pillows, etc.\u005cn\u005cnOther sofas beds models take a different approach and use an inflatable air mattress. You can even buy ones where the entire unit, sofa and bed, is inflated with an air pump when needed. Don\u005c't forget to consider the size. Sofa beds are often used in small rooms. But will it still be possible to open the door when the bed is open? If not, could it make answering a night time visit to the bathroom tricky? And what happens to the sleeper if there is a fire or other emergency? Sometimes however the beds are so short that many people will find their feet hanging over the end!\u005cn\u005cnSofa bed prices and designs vary - from the most basic and functional design to top of the range contemporary leather models. It\u005c's certainly possible to get a bargain - however you have to ask yourself whether it\u005c's worth justifying the extra cost for the best in the store if it will only be used occasionally.
p4
I6395
sV!)@]{##&}#!][%!(^)#)]!#^!%!#_(#%]{_}%({)}%+}]()$$)$(((}*{]!_])$!)%[#{%)!}{%!@#)&
p5
I13138
sVgetattr(o, f.name)
p6
I18733
sVpurple.PurpleGetIms():
p7
I1430
sVs.result.search_params.get_args()['display']
p8
I14368
sVa = "hola mundo como va? espero que todo bien"
p9
I1571
sVp2.stdout.readline()
p10
I15854
sVWebsite.objects.all()
p11
I2656
sVt = CmsTextContent.objects.get(pk=10330)
p12
I1637
sVclient.profile.password
p13
I9353
sV[ i.id for i in r.get_result().get_items() ]
p14
I3990
sVplugins.import_plugin('hp_splash')
p15
I14223
sVbase64.decodestring("""yFA/B6/fgVeTFPS4NIqijSVtVUemN39H+e6EuYNxcNiHnCsZeU3W0iY29Fbye4GjyIrqXD9RTiVAU/gI7Pq7Qi1vnoRkLooganMExe36ySUofSME6cF5zgQPoQvnsRNQbp0owGrUZ0fx0EuMWghIg8PeaK3UQPqpOuMzf0neyBePLXvg6u0tYdvCHF7JdLLGpH20CWO6mX8bc2rDAz+bUNshJS/eHNhLCblzvrKbJcddzQRfOkyriWOTusBm3wDZ1kZMs2fEckZRMBvUIiQljZ0L1IV3wDkVQ9cbdDqEIHlWi/xmHtVsb4G+SAMpsBNpXJzfzle4IZaHWdt+GOsI+y1DiHdRJ9mizN0+mEUsIhGqgJMiIMzeFeSmRQ21PxDVXP0yLKcsX3IPfPlcIOGcAGXcpXLgchisgZoyej4aEk0MTsRFGto4kvGzHBAyFrsf+UfKZf4ZqYQmx1pFMl8A0CQbhAoOgKioUFNOASCSTpvNqwiL1aRJuYQo/MzOLjhTcwrTua5Cg50513LwRkC7BJcIsHKCuWvU3CyKKV5Iz1M4qB5C4dBISifGiaisjwmprQk4VWeLVmyba+lzpfDa7PjGs3Hh54cE6BoN4aJVqaUpLvbxJfd2A4ODlTrOQZmFa129XbYkApB5EejTqY6TU4AW3p9G+Kd4TNAjTE2KVfUIW5bhXSvEE5Gs8JCp1xxgPcwrSTVdqe+VsjhqKjihnMouWiXn5pQzv2DlsGzDB1jShTmdWvo9gv4kya16ZzBUalTPTXVVPlapL4OMIJgwXzGPkO+2mwjgdjF8jzaUjn3EwAece8fM0pxpfJmI5IlHAJYKL4T0oVBE+gMFJsUa09IuBMi48ARSa8hXDmGf9nCpcAJ8jCrBdtj0Apm3CgaNWwdhxJhGb5RCLenTvOwB81N7sbyuWI2XzlKdRuUddJgD+3YDFxh1/gkTFgPWyq4xMuEoiZGcVKvfXpIeIZR6JN7cX3kL1HYfJYyZUs6IsYqQOaOy+gjVVw6GgE25oBD9geh8cS5mx94XxIXmi/1KUcYztxx/+zPSihLJ404sVnaxQ2LfpM7QtUUFZnyz4olTEfdQXxaQPUzIbuceyGqJig1djjiGw5qAHYcQQ45gJC3Gs+bzo4xiIJQHSTvi1SP7b9Ge9bV9SjOJ5kt1Z4CZoehu9VYKc+PcUFwWVeWN2Xf+Xp8xf5txn6upEc0tiUbSsQCRkZmJVVJntibWDnq4MjeczapU/sBgsULj5h7+llwmaKgdTCAfOLqWWX69z7ncwXbg+Aws/t6W75nHeAMVTI+3l83TNgCQE8OZvmkz8Nah5qTjeSWJ+AuggwQ5u5/y1r9uLOOrUygl+zlia0ejEGuQjhD/CG03jOB/9QCosM7PxqDHWE+Q27FLwyuwkELT2bzR3UW40W/39JlYH8CiEeoeGO7mPIkoIUxnHVmjkZ7YkUkCxQmEEqv5L5MRZtlrM8zh+0uZM+VHUpRp9XLGq6kZOR3PsdsHDdu5ep2vzWEt5Km5xZTMSy3EJ7d+viGDVnaMiQS4IOxRrasUGB7Ezvu/cTeG1RBUOp8bozIAZ9z/2JRrvRwK8AKwkDw4dXIF22AG23+c6MP4BTP6K1asWMzMqGwUMzDNdGv0J9KHFAYdWQX43PATnIBgC8vpbsK++O/gKJyIpovu4nobgCXCUZMguPmhcy/m7bdOiOyPJclNvtY3k8H5pAOHWksozgv0BU+IYr4+BJrrA/+yEsLTOf9Xufd7k1Y7Vx3S03yZ60USj3qHYWcweW9b187sBuR7NGrqXJn6IfeA2U2wh+a0onzKdzXQndwlUg6wnIBBNQS9pg2gGJsWtZkaXC7XycmCx+KUDTiKKdzWAAWS7pREmF8E7gAyRAeyyUC2BYuA7vy2hGIWB8P2C2yYhR/huESHTgECxyQAK0AVnQnS9kZelLfMliy9H9WkSu9okQe56TzO7fyd8skvypdw1iih6/Gj6RO2iL9HgjphdmGjLk0tVzRbYG/zwDxpmbuSTK2L22dFaWOG41AvKMBTMvU7WgQ08Km6R3DmyoCc4SM4b/UvtMQmTNVP71TEA5xU7lcoxKl7wtRBb6RZn1QeN/irJa8ALSzdhNmiV0VrAARfEeF2Dh1s6lNJzyydiUrPYmb9ZsrPThw4xusDftbOMxMj/5wIRoE0Cy13vm2bwCt9s5VJKpf41fy2I9e8Pfvfv4RzMLlM64WfERR+H0u/8+gaMeED4apWh7jg0ippzvLZwnV71SFN6jJdeAfed5jqsJENBUWbIxGf7l4FKMDwVvI1X8gqGD4pPc5sBFTq73PpFfHiPShLc5F4p4Wvuduszq9FMLra4RLbkr8F3wigOVpsy5UqRxRQSk+e3eKEiKaZBLXP9Lm5vqgTVQCG9WFrB+vRbh9P73ui/rG+mpliQzwBJaqrGrLffGBTVM/hRSwqQ+TUjrmeeJuVjk5ZHJ6yesOo6sW3g93l+HAySrR7hsFvHzldgznaiUNOn4VaJJUpRzWgu9fsuyU+lLOtyzyDqywMEEmS2UzlRbFZeMJ8FPGl4TsT8jBd+Z+XZ/ino/eK3IZREmTn+rJBE+vHzYh1Hkiym3ESRkLpstA7BbCmGJtNTJa2sze/2DPFdDXSmWC1KYZDKYUflzi3yn3NqINfK04gd+M2TbTuyxW3mbg2x5ou/YZwv5QiC9OzWyQL7iMFoJM41zC1I9DHRZBLFBEqFCID4dMipeaVr+R7ypW0lZIyC8j7p9z+XQx9O9+Xbf1QsgZc8Yc9V5gvEdLszxmaC1bmcdpraSmtyj2bb0/mBvIRlXehwhLzfWgKBx7+OrhTZpEd8nWa08/KWHS9IQruRKHsKc8e/QSjFwZtJa+26bd9JPYXpjmQ3DaEX0vv37VIdv+WDjyPlBwMqPgmPPM9BcFPh+gAIakL1/fN69kieWyOLWKk33PAefpI++x6lAqNW8Oi6jjKPsb2byqZL488/Eilvvewf7ck3JOI9kgh3tj/v6UZIgv/rT2LOq/YwTx1EQUmh+MmvmCkxlbkSdxKemJH8FiAag05tkjxv+qybXSOIIXRU6dz9lmy2fWPHYYaTMk0v5OzcTSIwLHA7AoS+mzjTSu3ZFUv3LTPFjorPKKamf96pNsL1O8mEYpv1Mm59dCBG4rDyuRiLPEV9mIey90hQR2QbQfSGeL+/JOrlBmTdFrIEAf1JCmFiqQydtMnXfgctMWbOfyMHH+uu+usJrHOOigXyw5Ex9ALanM6Q5U7j9BWrJJfQQbM5YUBclOSFVhxFMCrwlYiNVOZZFH6j2Stbpz/Uy+zXjdbDHEajTTUlVN71t6SOSrRXm+aVH4OjI5+/7HT+RAYZEmRqf7/qj4C3+FlvkfeaIipjYS0gYNcdyCOWa5zPloFwx4fEz7fHIO1/YifzlWWLOTQwzxmjAYx6g/LDevHuJ62D9/ZMzJ9GyQCIlqm4owvKyQ17yS0EJrRGkUX5Kywv/nbu72scCY9CYamNmd2ZMTAdn17UAIj4rafxNwPoIdpwzc27mD4p0g+zNJGUc9nXs4JMf9Rvlix/uoEwEV6I1KbQp6QpY/aJIm+vuWFh9fQm6cEv6aCgHRpJObVh5HRqBtTeY0LQ2zU9l17Za6p6IcZNdAUf37VdSLiR+qoG8rQ20h07ZSxsOCO2DbA+EqlLxfOe3Y3AZyOY54IE+vATWA+8m4FAJReZ7epwX578bHiIXzU8Y21bDu0AotZh8j/7mZS1Atll+JDQbtpQirMP2bYcqyhWBn6ah8EjCnnsd+fEWR+BLWIfDyM9gI3Gnvr2Gjq8TaFSCSsiGqXrhQbS78zFITHFG5rhdqunhnGWGEWKhQQ4YSIGQd1V0GCcAd62l/uU3lknz9n1bLFFNmn3h7mpKxO0OUJ/8GBlKwENgmwpGPfIi3RjsionVN5w7BXnxvMLzR5FYYmaBPCGd0AOnTSRFLpN5rmHBI7fkHBCY393bflyfhihZ9AAVhnjNZVBVy+MHs3XUCq8i8MqWEQr8gPBwbki2G7cihPIIOTupJNyaV19Dhgsllj7d3Z3hDm7tP7HW/2W4JyuO4QWjmSUFdu4XJ/l6fOoUjKX76Pdfvi2Yr/+YNTIRG7Vx4xNMELe/g7GS0ghTz0S7ASVP+EoOmYNUipYKd4ThS/mFqmwVARIYmIyIcCYQUKA/NyZ89G4XNR+FCMNy0ynRlTLk1653wf9NTqEOJ0Bq/j1eIIOYn11HfmDP4GiXRngDq3pXPlZLNu0g19if7H+BfPE/ODOPOD1uINga4yqpCFyliXRii8UwiCVigWcnJIcQtXHch5uFjS9rWoNWrAWmnzLRFIzHYXi4MvVnMO3EwiFAfHAZg3YIPR5rUg8IyKsFZFq0drMjPEUX0Qp/gaNwI3RoBhDzCg+3om7bMidabF3xQ9VV3TVT7qCzRP7pUHjxTJrUOM+19GBIWh2N80wkvYTE0dbpBbsPMp2cIvxDfdxJVqz5ApXse5jqQRVtNc16GsTlGWKcygc5YMhqa+zBFMjhjUd/KJR4ShACw1SCBjsiJ6TsstcRxha9xdk2cwrHgMllWwRLj84Lv2bsA6pFmoETeHsujGanDHrQmaIeMF1I72UHwpCTFyf5mkPh0P7QB6B1A94Ap0/KqrJ3n8uloeeogWeIbxd5s3l6NCQfs93ns9O0J21d6Ufz6lXXexxtDR3AZpKIMPTXSWonfUvr7mxbgZXMb6jJFVa5u/488ZQmUhjF5c4rfeIduJzJA40UTudTzLC81FHDmQZvKACvDJMOgeyV9wtElJtfB9s0uOi/mrPuSzOX7CheMv5yt/qmDjIr0OROtGfA9sGFXm1glJc2YhLYtkWP0S0sHdhw83NhEMmZFsOVMOJpnXDS9SDVy3y3yQ6U/Vd7+gUo4k/EWFdm1ga7nVzwYho1zz1N83XZz2dd1jUprDN4wIigfDy6Q1JEqCYjl23FfjCmHBOeD4eA0ibC2KUFeh1h/nxC6KM9Ri+qVFhm8v0IFfJ0yv2xtY3kC4r5+R4tSlFERzHOue2KH2liWlG9X37Ggrq0SqNa5E7d19H/y2rNL/QDTBVXi9WxJHJjvBFAj46M0zY7QlfbcchhZYAJmqv2/7nal3nhRXGsosnijaoRQF/CkDWpUns6mTKLOujavsskuTDcMJJpjkSp5g94mWoEvF/x1is1ufBjaOANvRaiaS4Ve4uxy1ZvMO4KYeWoejXNTm1QrcLLE0d3QHvZuhMBFzWu/985K6LyGGZuw7fjDRjZyftNu41s9ENEdjrkGfD8jU2GZM3/AxC7c9tNGMqgnxsKE16SCTe9tPHisTkMWYLjVWD0HWm1v9PNooZ5DlxVLjzgblmrBfwwe+4lED6nvmeabo2yVcdmQZN8KIHQT08XbRJXDYGzTnWSx4XOpW+xmXPZnStF6WvOj9X39Nc7ZVLsjGEdPGL1RXAwmbTwb4osrNMjAdHg8AIEDbeRiFjhHFDZO69JoxQ1wdhNOw5EtIWsfPRsfujb5RbnINKNeAkpVyiJu4acHX3O4hVIG3KEKXt96GseHIQJmPvKsJAOjM5dKJI0Ewv19t4mLwlN+rcQIq16omWl2rL/Rcn+Fprnbyx208MU4ylHCSa/Np4LrHX1f4SSs83IVaMcFSg1cGYV3e6L8e4hCyA+Nddu7vqHpeVcL8XN7YswQaUBC+Xgw9IzSy+r8cY5jdqPf0g6rimE/KZcXtU3PyeVo/dVcIVj/c0CgiR2pFoJtKsJcpN2szi74MS1ljHyi67u8WB+nq0ID+9gy2XHGsssIx75ux2XSjWbfhVrT6VHEcpzNkbHK/9662Ocs+3r2v+3hSd2PvclfzJWxhdbjQg4dqwDEe+gTHhSIUTLXzezKDoGIZYtOrHpoGd6fM9wdFddzA6dfR7BVnak+IzMzhmZEzv/gtaRgRKKxbdt3x8tVRuLn/TS3Lx+PcQHSKfTN8piLmNPbY3otTccqfa4ZFqaRiV8AeaCnjMy4byqoNm4HjZ6P2cY+hsA0v+pWHgQek59BMP/8PRoic/m9yTr8qkF0TNBL91DhoiH0RcQwU+17YWhXV3bPufgETe3XL/c8CGUNvm58SBwwgdt7+s2+oVkMfvmxWUi8TtdbPaM6zONZBThyBpuDDjMa25xriOhID0l35SF2OsRPvPcEgiTfbrpw/uyYQxwBbFUjseP16aokMn7AQZShGl3WAOk7fUsV+3XBbWVzABZA7+E5FvgBxok36YUtvA/cKCnTe+LlsdnN0YBF7HBH3rS+UKSA6EC4YpYH79X7HzHzlC1OPPT5pLsyMYWvwUv9xrk0xlt52RohlutrUmquTfm77MjUTPQzS0lsLWIhZ1VkyvBgl/89fhTaVPqsHMmJhSSqFxFVl3VWTGhLnDqHBZE28w5MBoQqjiCqWas5p+NSw1xb9eimZnEPOR6hU2Ac4jyKi/axthjPTnTqxjjJqTqOg2pF7RbLSuEac9rZ9keArpq3TekhqX8SHCHGKi2O17OB+yL6L7SEeB4Pu34XU/PFlvoBBLjh924YgsJL49F72tci00ae458pf7kGm91b2Q7uew4sh1xr5exH4Unh9pdgTRa4GbmTS/wxRnL/SCm5ul0mW9qiLWGDQaE+HNHOF5tWHSOO6Xzgl08grGyxLDZRfBQ2DyhuODkJXZdKTdAmEmbLtub7GMmCSb0GlIa3Q4glsFJ2P80ulh+C1FOaPNa68+7aXGgRmNOepQO7exmbsPDydYJda1i6DXIR6EZWVBGYiiWKsIV/UMX7g89LAoEwVIAj5olbTLH3/ETiunyvWWtw+Dk+J+a13AWs2uhzix72uIMvlhy8iyEYRf8fwZOhOOEqRKV7fr1k3NiJ9BW+for9XjhIagieSBIMQAXrikrxWTyyp8w3p7hnY0988IPoaIeyZGdpz4dxxfiYBnAqlaM2ZwwY5pl9811EqwOj6XJ0N6XfRZAj79MrfVdI1a+w8G1Jt4GwwQnEw3Vd1wL8AEtup/FgXLnBJ66symuFaj/KHVh8HXduu+hGgMBSpuWneLNMWhGHZK5fzNSFofwgziQ9CEZNzrtrltKIAvjgPY7ooKWhQvWYrqaGHVPp+qQmOFIkryZYS7pEJQAuV0dl2YZQMddcA4WLyULkpVdyXXM/B2B73kfnA4y4ubPI9OapvlHbDe8UIoOgtPZv7+rh85+r0LESiYnSncF3LqdPtY/1cVqxWctPlg5BXxmfpesWcvgB5AOo7tLec/s36yIBxtovpKOtGJKqYIVf5sEc9o0SQuqUVUqXmD87bRzn7bVC85Kz7E7+hWGodXONRyaJBJv+SB4hkoGCrosf2Nl79uz37QTh9IY6Lz7XUHvWsg3PkVck9OxSSd/j4c90A2e5PaxadZYVoPfusIHxQoppZxTmpO4y9f8/13o4npnu3YapCYlBauF2+g2P7kSfizRuygtD66Sy5E8xBs5x+wGaZuUaaiUBk49u4xjDyx3HjMF6E3wjVEJ8GHUpVj/o+TYoO6C7C8QJfIizZ0+258tPme5tPuJQLzmybjMVjwmYYYpDZGOUV+Y48CCdmnqM05x3nrWPVqjnzf4KT8eVA0bIqXWyPXVbd+n2w8raxXLbesZW3uBIL5n62ikD3mkLSI4eRalxBXtUnW1EvQbl6ezQRHSZlmZ6x2UPYyYsjHXEYlj8tQddmvHBiGoXo5+3iE7eM4sp9jxhP5OCxcW6Ox4De4bVn+oMONClNUFDCjD+tjvs993+OcWbZNufm+RlPMJrvPCqKaVfD2mIXVVH983sYCcak7bG6ZwAPbay7SzLIO5QW9/fAbXwBG2o7620LobgWUQvrmfB8iqY7AhMHNG+AIRzbTVxD7QX7fpK14zb1efiDyEc1z9PVOCXakx+rG1qoYkrMiJNi8riQ3EZFRy4lobfS0zXbHjf35lk/wE67UtvS15CP2XDcwHEs4aN8W4I6kQJ9bxjINjYmfHXEQCxrJFfQoDB2yD5i2YQXQctwIPMzVtt3yqxPOt2pbAmO67LwO7zflqdKg9qIvdGkqTMOGgTuJi6BQqy+P6r2pXxoo5EI4Ts/Ur4I+dejqW/ftwJPmeAQUGPvZkXGnbTjRT+51s5kAc3pWFgFq9GWd5amYsNxkzEZ/q5UadTxv9j89a1UcHyC1GsksdeG1fkOXdLliwbYJFjNHUXIDIpdVYC3JcUpiU95kf4axTmQpco1zhZtUMrpylp8wSUrbUWnfh3QcSIcCoiTrVsIgol4o1a71/Yl6fYzDbBKuWdAeYRKax3er5xTha936uvGyy4bEnlKGAazhBxkPUXrG0dJN5VepAewM+IH3JjhgIspn+NoEUWeOmsZcuF/zuCZRHvKW1ROAFP0zohr3w9CjKN/eestem6PbbmmJPMyqhykixms6CtRHVb65jVxIY8KsEfR0Z+rQ+dvVtGo7Hrv96lEq1KuCJT39NXL/uMSaQ7Y5c6StNuqBXrvT8MCyrZqY8BTFLjJV5wUVGRvUoeKQwuC54cyjyjWQq+hDis=""")
p16
I14534
sV[purple.PurpleAccountGetProtocolName(c) for c in purple.PurpleAccountsGetAllActive()]
p17
I5612
sVs.recv()
p18
I7285
sVs.user.name
p19
I16368
sVfrom djang.db import models
p20
I8981
sVsend_notification(posts)
p21
I21335
sVq = QueryDict()
p22
I18195
sVCmsPage.objects.exclude(simple='').count()
p23
I11978
sVt.start(mainloop.run)
p24
I9432
sVFacet._meta.fields
p25
I3634
sVimport pyosd
p26
I7246
sV[purple.PurpleConversationGetName(c) for c in  purple.PurpleGetIms()]
p27
I5609
sVPost.tags
p28
I27
sVsettings.LANGUAGES
p29
I11985
sVnltk.tokenize.WordPunctTokenizer().batch_tokenize()
p30
I6474
sVpq.move('matias', 'f3')
p31
I16305
sVimg2 =
p32
I12287
sV*+^(_]*$!_^_+[#))$$]*+%}{[&([&)@#{#)*%)])!_^+%%*#(+!}+{[#+#%%]@((]!_#@*%&(@[(@@#
p33
I12943
sVcategories
p34
I16696
sVfrom fabric.api import *
p35
I18862
sVqs.query.max_depth
p36
I12056
sVn = [ n for n in nodes if hasattr(n.node, 'nodelist') ][0].node
p37
I10230
sV{&*[$@^{(]@}]%)(@&}&)}_@$}&]{#$^}@@&[]#+!%^]@!]]$+$]#^_]{](^*&!%_!!&}$^&#!}++)_!
p38
I13921
sVi = Item.objects.all().set_language('es')
p39
I11025
sVd.minute
p40
I11822
sVCmsPage.objects_aux.get_work_in_progress_pages().filter(http_path='/blog/')
p41
I603
sVa[:4]
p42
I5119
sVf.has_prev
p43
I1763
sVc = Category(path="chairs/2413/")
p44
I20620
sVvideos.keys()
p45
I3216
sVu.extra_data.split('&')
p46
I19759
sVr.num_of_
p47
I7687
sVp.parent
p48
I19907
sVs = 'hjhj'
p49
I11565
sVItem.objects.set_language('es').get(pk=1).title_es
p50
I11100
sVpepe.func_doc
p51
I9817
sVp.category.id
p52
I5270
sVdatetime.tzinfo(hours=-4)
p53
I17721
sVHtmlTokenizer().tokenize(t)
p54
I6565
sVcookielib
p55
I21094
sV@!]@([@&%${{%*@^[*$#])__&+{@@@{$+[(@!%!^_{$*^*$)%$!%_]&$($!#&)@!}#&*#(#_*#]*#%{)
p56
I13622
sVx.reverse()
p57
I20146
sV'a/b/c'.rsplit(os.path.sep, 2)
p58
I820
sVurlparse.urlunsplit("")
p59
I5013
sVp.rel
p60
I8978
sVdef wait(seq):
p61
I9392
sVr.translations.all()
p62
I5772
sVos.path.basename("/")
p63
I2714
s.