(dp1
Vany(i in a for i in [1, 2])
p2
I3476
sVfrom djang.db.models import Q
p3
I20883
sVt = t[0]
p4
I18355
sVg.permissions.all()[0]
p5
I6580
sVsettings.SITE_URL
p6
I14543
sV<p>
p7
I18241
sVabsolute_reverse('confirm_password_reset', 'Fivestripes', create_email_token('confirm_reset', 'Fivestripes', 'sales@anadesigncorp.com', 86400))
p8
I18204
sVw2.raw_bit
p9
I10253
sVa.find("mundo")
p10
I1572
sVo.action
p11
I7061
sVc = get_shopping_context(path="/living-room/sofas/128/129/")
p12
I5424
sVx = ChildA.objects.all()[0]
p13
I19958
sVslugify('hola-mundo')
p14
I8881
sVr = ProductSearch(filter=['category_id,bathroom'], count=4)
p15
I10786
sV#&&+{#+!^+++*!![^]@)#][&(_}$&_(!_[$&%{%@]%]}&$#{!^@%}%{$$^]_!((**!{%)*&^]}#)%%$]
p16
I13499
sVfrom pyaws import ecs
p17
I6068
sVSiteCategoryProducts.objects.distinct('category__slug').filter(category__slug__in=categories).values('product', 'category__slug')
p18
I10544
sV(]!@^](!![@#}%@][{*}$*!]{(!#})(&^^@${&)]$^(#}{***%{!&[%)!#%(%+(_@}^}*{^!${[)#}_#
p19
I13842
sVfrom userprofile.models import Continent,Country
p20
I799
sVa = "<p style="margin: 0cm 0cm 0pt"><strong><span style="font-family: Verdana; font-size: 9pt"><em>Homo res sacra homini*&nbsp;</em></span></strong></p><p style="margin: 0cm 0cm 0pt">&nbsp;</p><p style="margin: 0cm 0cm 0pt; text-align: justify">En lo que respecta al avasallamiento de garant&iacute;as constitucionales nuestro pa&iacute;s tiene deudas dif&iacute;ciles de pagar. Consid&eacute;rese hecho un importante dep&oacute;sito en lo que a ese cr&eacute;dito respecta. Los mecanismos institucionales con los que contamos suelen ser maquinarias lentas y perfectibles. Pero ah&iacute; est&aacute;n. Y en este caso ha sido de notable importancia la labor de uno de ellos, nuestra Corte Suprema de Justicia, que con sus honorables magistrados, ha esgrimido como sable justiciero nuestro imprescindible Art&iacute;culo 19 haciendo retroceder al estado absoluto de injusticia. </p><p style="margin: 0cm 0cm 0pt; text-align: justify">&nbsp;</p><p style="margin: 0cm 0cm 0pt; text-align: justify">El sentimiento de que se hace justicia muchas veces no est&aacute; presente ante las decisiones de nuestros jueces y tanto es as&iacute; que decisiones como la tomada por nuestros m&aacute;s altos magistrados en la causa Arriola aparecen como fogonazos en medio de tantas injusticias y decisiones irracionales tomadas en el apuro de la vor&aacute;gine del d&iacute;a a d&iacute;a y en detrimento del ciudadano que es fin mismo de todo el sistema.</p><p style="margin: 0cm 0cm 0pt; text-align: justify">&nbsp;</p><p style="margin: 0cm 0cm 0pt; text-align: justify">Como hace menci&oacute;n el Dr. Zaffaroni, la corte para pronunciarse, ha debido escoger una causa entre media docena que alcanzaron la instancia extraordinaria sin estar prescriptas. Y no ha sido por no haber m&aacute;s ciudadanos que los procesados en esas causas, violados en lo que a sus acciones privadas respecta, sino porque el grito de esas v&iacute;ctimas ha sido callado o en las s&oacute;rdidas instancias de nuestro sistema penal o en las muchas veces inhumanas celdas de nuestro sistema penitenciario.</p><p style="margin: 0cm 0cm 0pt; text-align: justify"><br />&iquest;Y por qu&eacute;? Por haber en muchos casos realizado aquellas acciones privadas exentas de la autoridad de los magistrados que nuestra magn&iacute;fica constituci&oacute;n proclama y que nuestro pueblo conoce y reconoce como derecho inalienable al ser humano desde incluso antes de ella. </p><p style="margin: 0cm 0cm 0pt; text-align: justify">&nbsp;</p><p style="margin: 0cm 0cm 0pt; text-align: justify">O por haber cometido un &ldquo;delito de peligro abstracto&rdquo;, cuando como sostiene la Dra. Argibay, &ldquo;&hellip; <em>es humanamente imposible contar con una previsi&oacute;n exhaustiva sobre las caracter&iacute;sticas de los hechos futuros como para poder afirmar a priori que todos ellos producir&aacute;n un da&ntilde;o a terceros</em>.&rdquo;</p><p style="margin: 0cm 0cm 0pt; text-align: justify"><br />El supuesto papel paternalista que asume el Estado excede sus atribuciones cuando avasalla las garant&iacute;as constitucionales. Es de aplaudir que, como un&aacute;nimemente se pronunci&oacute; nuestra Corte, se haya exhortado a los otros poderes del Estado a luchar contra el narcotr&aacute;fico en vez de criminalizar una vez m&aacute;s a las v&iacute;ctimas del flagelo de la narco dependencia.</p><p style="margin: 0cm 0cm 0pt; text-align: justify">&nbsp;</p><p style="margin: 0cm 0cm 0pt; text-align: justify"><strong><em>* Por Gabriel Vega, especial para Universo &Aacute;gora AC</em></strong></p>"
p21
I9074
sVbus.add_signal_receiver(my_func,
p22
I1424
sVb_iface.GetProperty("battery.charge_level.unit")
p23
I2199
sVlen("SubsectioCategoryBrowse:candles &amp; candle holder")
p24
I14619
sVPhotoTag.filter(PhotoTag.tag=t)
p25
I15264
sVc.close()
p26
I11799
sVs.hash_key
p27
I15308
sVp
I82
sVb_iface.GetProperty("battery.charge_level.percentaje)
p28
I2255
sV_@([()+#_){${^[__}+#%{[&{_@![{}+[#][)!&!&^$(_*_^^}[)&)}$%%)(#[)&)+!+{@^@%#__]$+]
p29
I13723
sVviews.search_redirect()
p30
I15494
sVurl = "http://allmenus.com/ri/east-greenwich/245137-eleven-forty-nine-restaurant/menu/lunch/"
p31
I16223
sVs = '/aff/?param1=val&website=32892&param3=3232'
p32
I14851
sVa.sort(key=lambda x: x[1], reverse=True)
p33
I17548
sVp.read('/home/omab/.t2chess/config.cfg')
p34
I16545
sVprev = actual - 1
p35
I3031
sVreverse('shopping_home')
p36
I20849
sVf.xreadlines?
p37
I15549
sVp SpecialOffer.__base__
p38
I7147
sVDateField().get_prep_lookup('__month', p.date)
p39
I15738
sVprint str(t)
p40
I7480
sVp = pt.select().limit(1).execute()
p41
I15152
sVany(a.get(i) for i in ('a', 'b', 'd', 'c'))
p42
I19541
sVVariable('hola').resolve(Context({}))
p43
I10352
sV[ s['description'], s['offer_id'] for s in sp.special_offers ]
p44
I8772
sV(@@[%}[}$%+*#$+[%(**!$+@$@&+$_$#!_&&&&{***+)}][}#^!%#&$*)$!%}*&#}}##(^_%^]{+]&&]
p45
I12886
sVr.values()
p46
I3850
sVitem
p47
I11038
sVprod[0].cantidad
p48
I7454
sVHTMLParser.piclose?
p49
I9767
sVreverse('alert_list', args=(u.username,))
p50
I12370
sVARTICLE_TRACKED_URL_RE.sub(0, s)
p51
I14895
sVa.sort(lambda x, y: cmp(y + 2, x))
p52
I2546
sVopen('/home/omab/')
p53
I12518
sVm2 = __import__('tipocms', {}, {}, ['admin'])
p54
I8473
sVlist(Product.objects.filter(pk__in=x[0]))
p55
I18548
sV'/' + a.strip('/') + '/'
p56
I17043
sVupdate cms_fragment_template set content_names = "deals_heading/text" where id = 133;
p57
I6726
sVtar.close()
p58
I1924
sVurlparse.urlsplit("/hola/mundo/")
p59
I4748
sVadmin.__file__
p60
I7465
sVg.node_neighbors['37328']
p61
I6966
sVp.front_stamp.TYPE
p62
I3751
sVr.translations.add(M(name='name_es', lastname='lastname_es', _language='es'))
p63
I5798
sVpprint.pprint(page_data(p))
p64
I8984
sVurllib.urlencode({ "a": 1, "b": 2" })
p65
I3324
sVlist(c.categoryimage_set.all())
p66
I3543
sVg = os.walk("/tmp")
p67
I4736
sVgtk.gdk.Color('#aaa')
p68
I8084
sVimport csv
p69
I10671
sVurllib2.quote
p70
I3335
sVr.status_code, 'class="room' in r.content
p71
I19659
sVweb.load(QUrl('http://google.com'))
p72
I18010
sV}@$$)%}*@^}}{)%({_&[$)_}^(&!#)!@*%{%#^_@$)((()^)$@*@%_$%)*$(!$]*#*#+++_$&}{^]$@]
p73
I13288
sVdef languages(lang):
p74
I12005
sVemail = "martina170767485@aol.com"
p75
I1191
sVs.query(PhotoTag).filter_by(tag_id=t.id).filter_by(PhotoTag.photo_id == 1)
p76
I14748
sVproject.rsync_project?
p77
I18861
sVsuper(C, c).attrs
p78
I1713
sVstr(float('1.4'))
p79
I21221
sVlen(c.result)
p80
I3846
sVc.auth_token = u.extra_data.split('&')[1]
p81
I19705
sVa = """<p style="margin: 0cm 0cm 0pt"><strong><span style="font-family: Verdana; font-size: 9pt"><em>Homo res sacra homini*&nbsp;</em></span></strong></p><p style="margin: 0cm 0cm 0pt">&nbsp;</p><p style="margin: 0cm 0cm 0pt; text-align: justify">En lo que respecta al avasallamiento de garant&iacute;as constitucionales nuestro pa&iacute;s tiene deudas dif&iacute;ciles de pagar. Consid&eacute;rese hecho un importante dep&oacute;sito en lo que a ese cr&eacute;dito respecta. Los mecanismos institucionales con los que contamos suelen ser maquinarias lentas y perfectibles. Pero ah&iacute; est&aacute;n. Y en este caso ha sido de notable importancia la labor de uno de ellos, nuestra Corte Suprema de Justicia, que con sus honorables magistrados, ha esgrimido como sable justiciero nuestro imprescindible Art&iacute;culo 19 haciendo retroceder al estado absoluto de injusticia. </p><p style="margin: 0cm 0cm 0pt; text-align: justify">&nbsp;</p><p style="margin: 0cm 0cm 0pt; text-align: justify">El sentimiento de que se hace justicia muchas veces no est&aacute; presente ante las decisiones de nuestros jueces y tanto es as&iacute; que decisiones como la tomada por nuestros m&aacute;s altos magistrados en la causa Arriola aparecen como fogonazos en medio de tantas injusticias y decisiones irracionales tomadas en el apuro de la vor&aacute;gine del d&iacute;a a d&iacute;a y en detrimento del ciudadano que es fin mismo de todo el sistema.</p><p style="margin: 0cm 0cm 0pt; text-align: justify">&nbsp;</p><p style="margin: 0cm 0cm 0pt; text-align: justify">Como hace menci&oacute;n el Dr. Zaffaroni, la corte para pronunciarse, ha debido escoger una causa entre media docena que alcanzaron la instancia extraordinaria sin estar prescriptas. Y no ha sido por no haber m&aacute;s ciudadanos que los procesados en esas causas, violados en lo que a sus acciones privadas respecta, sino porque el grito de esas v&iacute;ctimas ha sido callado o en las s&oacute;rdidas instancias de nuestro sistema penal o en las muchas veces inhumanas celdas de nuestro sistema penitenciario.</p><p style="margin: 0cm 0cm 0pt; text-align: justify"><br />&iquest;Y por qu&eacute;? Por haber en muchos casos realizado aquellas acciones privadas exentas de la autoridad de los magistrados que nuestra magn&iacute;fica constituci&oacute;n proclama y que nuestro pueblo conoce y reconoce como derecho inalienable al ser humano desde incluso antes de ella. </p><p style="margin: 0cm 0cm 0pt; text-align: justify">&nbsp;</p><p style="margin: 0cm 0cm 0pt; text-align: justify">O por haber cometido un &ldquo;delito de peligro abstracto&rdquo;, cuando como sostiene la Dra. Argibay, &ldquo;&hellip; <em>es humanamente imposible contar con una previsi&oacute;n exhaustiva sobre las caracter&iacute;sticas de los hechos futuros como para poder afirmar a priori que todos ellos producir&aacute;n un da&ntilde;o a terceros</em>.&rdquo;</p><p style="margin: 0cm 0cm 0pt; text-align: justify"><br />El supuesto papel paternalista que asume el Estado excede sus atribuciones cuando avasalla las garant&iacute;as constitucionales. Es de aplaudir que, como un&aacute;nimemente se pronunci&oacute; nuestra Corte, se haya exhortado a los otros poderes del Estado a luchar contra el narcotr&aacute;fico en vez de criminalizar una vez m&aacute;s a las v&iacute;ctimas del flagelo de la narco dependencia.</p><p style="margin: 0cm 0cm 0pt; text-align: justify">&nbsp;</p><p style="margin: 0cm 0cm 0pt; text-align: justify"><strong><em>* Por Gabriel Vega, especial para Universo &Aacute;gora AC</em></strong></p>"""
p82
I9075
sVfrom PIL import *
p83
I8288
sVos.environ.get('HOME')
p84
I19022
sVmodelform_factory(CmsTextContent)
p85
I14862
sVtype('ExpiredSpecialOffers', object)
p86
I7138
sVtokenize = build_tokenizer(phrases, HtmlPhraseTokenizer(stopwords=[None]))
p87
I6484
sVfrom django.forms import *
p88
I4345
sV}"""
p89
I11319
sVlen("CategoryBrowse:candles & candle holders and")
p90
I14615
sVf.live_date = '10/10/2009'
p91
I7363
sVheaders
p92
I21179
sVr = re.compile("(.*)")
p93
I2641
sVall([1, 2, 0])
p94
I19510
sV'wallace-sacks'.split('/')
p95
I10621
sVr = re.compile('"[^=]+=="')
p96
I2797
sVv = p.values.all()[1]
p97
I8636
sVsys.__class__.__flags__
p98
I10892
s.