(dp1
Vi.set_language('pt')
p2
I11282
sVd.size
p3
I8095
sVc[0]
p4
I1744
sVsimplejson.loads("""{ "cms_contents_text": "<p><strong>We\u005cu2019ve teamed with <a href=\u005c"{% article_tracked_url \u005c"biomelifestyle.com\u005c"  \u005c"http://www.biomelifestyle.com/\u005c" %}\u005c" target=\u005c"_blank\u005c">Biome Lifestyle</a> to give Helen, Mick, Colette, and Derek the their Christmas hampers! </strong></p>\u005cn\u005cn<p>They will take home a \u005cu00a3250 hamper full of delightful Christmas decorations, including their fair trade Christmas wreath (right) and advent calendar, plus bestselling gifts including the Silk Scarf Cushion (right), Alpaca Slippers, Bulb Vase, Cotton Bathrobe and many more!   </p> \u005cn\u005cn<p>Like everything from Biome Lifestyle, the items have been carefully chosen to meet strict organic, sustainability and ethical standards \u005cu2013 without compromising on style. </p> \u005cn\u005cn<p>Biome Lifestyle know that being a conscientious consumer does not necessarily mean you are a hippy! Instead, they offer a unique range of gifts and homeware that unite style, design and ethics.</p>\u005cn\u005cn<p>Read the <a href=\u005c"/the-magazine/biome-lifestyle-terms\u005c">competition terms</a>.</p>\u005cn\u005cn<p><strong>For your chance to win, just tell us: Where are the artisans based who made the Recycled Fair Trade Christmas wreath (above)? HINT: <a href=\u005c"{% article_tracked_url \u005c"biomelifestyle.com\u005c"  \u005c"http://www.biomelifestyle.com/browse/ecogifts/christmas-at-home/recycled-fair-trade-christmas-wreath/\u005c" %}\u005c" target=\u005c"_blank\u005c">See the product page</a> to find out the answer. \u005cn\u005cn </strong></p>"}""")
p5
I11329
sVgetGroupByQuerySet(ResultRankCriteria.objects.filter(QJoins(ranked_count=('result_rank', 'left join', 'ranked_count.query_id = rr_criteria.query_id'))), 'ranked_count.object_id')
p6
I7707
sVisinstance(a, slice)
p7
I2614
sVreplace_amp("hola &amp; mundo")
p8
I4658
sVlen([1 for x in a if x == 7])
p9
I19729
sVprint urlparse.urlparse("/community").hostname
p10
I9927
sVe[:]
p11
I12716
sVfrom cms.models import Value
p12
I4866
sVg.obnob_users.active().select_related('user').values('user')
p13
I20139
sVRenderedData.objects.filter(value__contains='{%').values('page').distinct()
p14
I11494
sVPost.tagged
p15
I28
sV__}$)$+%$%(*^@)++@!*%]^){]]_}]++$!()&[{*^$%+]+*_{[{$[#*[[%^}]&_[^@^+@@^)#)${$^&+
p16
I13951
sVreduce(lambda x, y: x+y, a)
p17
I21112
sVd = defaultdict(lambda: { 'names': { 'grouping': {}, 'nogrouping': {} }, 'values': { 'grouped': {}, 'nogroup': {} }, 'section': None })
p18
I4773
sVct.tokenize_text.wordmap['sofa']
p19
I6367
sVf = os.open('/tmp/tmp2m1eNe', os.R_OK)
p20
I15416
sV([^@+^![{@%_@@@!(%}#@})#_){@__^@_[_!^$(#!^^(@}]+${)]*_^%@$%$(_^]@_$+^_!#}(]%+%[@
p21
I13809
sVi = Item.objects.all().get_translations(['es', 'pt'])[0]
p22
I11289
sVb = False
p23
I3485
sVcvShghgui import *
p24
I10880
sVa.upper()
p25
I296
sV\u005cn\u005cnThe humble sofas beds is probably one of the most popular forms of space saving bed around. It provides an easy way of making a spare bed available at short notice.\u005cn\u005cnIt\u005c's actually surprisingly difficult to define the term sofas beds. This is partly because of the difficulty in defining the word "sofa" itself. The definition of "sofas beds" is more complex. You can buy sofas bedss in all sizes, including single seat versions. These should, strictly speaking be called "chair beds". However they are often simply called "sofas bedss". And what about the Western futon? The spread of interpretations underlines how important it is to know what you are purchasing before you buy, be it online or in a store. The simplest thing is probably to define a sofas beds as a convertible multi-functional piece of furniture that can be used as a seat during the day and reconfigured as a bed at night.\u005cn\u005cnSofa bed designs vary considerably. In some cases, the mattress simply slides out or the back folds down. Other sofas bedss unfold themselves in a masterpiece of engineering which requires a degree in quantum physics to operate. The ease of assembly is a point to consider if the sofas beds is likely to be set up late at night when people are tired and emotional. Some modern sofas bedss on the market have enough internal space that allow them to be made up with basic bedding even when they are closed and in use as seats, thereby saving a lot of time. However you will still need to find somewhere to store the pillows, etc.\u005cn\u005cnOther sofas beds models take a different approach and use an inflatable air mattress. You can even buy ones where the entire unit, sofa and bed, is inflated with an air pump when needed. Don\u005c't forget to consider the size. Sofa beds are often used in small rooms. But will it still be possible to open the door when the bed is open? If not, could it make answering a night time visit to the bathroom tricky? And what happens to the sleeper if there is a fire or other emergency? Sometimes however the beds are so short that many people will find their feet hanging over the end!\u005cn\u005cnSofa bed prices and designs vary - from the most basic and functional design to top of the range contemporary leather models. It\u005c's certainly possible to get a bargain - however you have to ask yourself whether it\u005c's worth justifying the extra cost for the best in the store if it will only be used occasionally."""
p26
I6354
sVd.value_to_string()
p27
I7765
sVfrom django.forms import formsets
p28
I14423
sVr = urlparse.urlparse('http://mydeco.com/microsite/bestonlinesofas.com/th-magazine/pepe/le/pu')
p29
I8788
sVfd = file(path, "r")
p30
I2087
sVr.status_code, 'class=\u005c\u005c"room' in r.content
p31
I19666
sVa[min(i+3, len(a)-1)]
p32
I2932
sVf.flatten_data
p33
I2342
sV}#^+@[%$%$(*]_(*&]!+)[#}((([+{]##&%!)%{*({@^*#!]++[!^!#+@)$%*!_@[{^[${$}#{(}#)_[
p34
I13291
sV[x for x in f.xreadlines()]
p35
I17999
sVHighendSearch(None)
p36
I9052
sVp = Post(title="cola", content="insert brain")
p37
I190
sVd.add_edge('hola', 'b')
p38
I7084
sVfrom poll.vote import *
p39
I18856
sVdata['section2']
p40
I4828
sVr = re.compile('^[\u005c.rnbqkpPRNBQK]')
p41
I15938
sVi._getexif()
p42
I8306
sVa = { 'a': (1, 2), 'b': (3, 4) }
p43
I11065
sVprint i
p44
I9787
sVx = X(data={})
p45
I20643
sVx.node_order
p46
I19170
sVdatetime.datetime.fromordinal(d2)
p47
I4038
sVnew.instancemethod()
p48
I8749
sVtest.do_timing()
p49
I6535
sVa[:b,]
p50
I12490
sVfor x in i:\u000a    print x
p51
I6211
sVt = ContentType.objects.filter(model='room')[0]
p52
I18356
sVa.split('/')
p53
I8725
sVquote(a).split('%')
p54
I14675
sVshuffle(range(10))
p55
I12787
sVd = datetime.date(2010, 5, 5)
p56
I15720
sVs = "article_tracked_url 'a3232'"
p57
I14849
sVset(hxs.select('//div[@id="Contenido"]/table[@class="Paginador"]//a/@href').extract())
p58
I16630
sVp.add_option('-f', '--ffff', action="store", default="", type="string", dest="fff")
p59
I12445
sVpages.__package__
p60
I17521
sVd.fragments.galleryitems.__class__
p61
I12257
sVs.stdout.flush()
p62
I15980
sVp.easy_stem("illness")
p63
I5916
sVimg2 = img.rotate(-45)
p64
I12284
sVn['blog_set'][1].parent
p65
I20979
sVCategoryHierarchy._meta.get_data_holders()
p66
I4562
sVo.sort(lambda items: max(item.created for item in items))
p67
I20993
sVlist(r.finditer('"hola mundo"    esto no va     \u005c'hola2 mundo2\u005c''))
p68
I14942
sVc = a[0]
p69
I457
sVd.node_attr
p70
I7075
sVf.template_description
p71
I792
sVt = Template('{% load omniture_tags %}{% omniture_js delay_tracking %}')
p72
I11426
sVx = -3200.0 * 100 / -300.0
p73
I10752
sVu.obnob_groups.get(pk=2)
p74
I21003
sVResultRating.objects.filter(user_id=813)
p75
I7671
sVsubprocess.Popen?
p76
I15851
sVfd.fragments['content_list']
p77
I757
sVunichr(2665)
p78
I6828
sVint(a[start+1:end])
p79
I1695
sVx.append(datetime.now())
p80
I18843
sVfrom adfero import utils
p81
I1774
sVsum(sum(ord(c) for c in s) for s in lines)
p82
I17759
sVmodels.__dict__
p83
I8584
s.